; Function Attrs: nounwind uwtable
define noundef nonnull ptr @l_Array_contains___at_Lean_Meta_setMVarUserNamesAt___spec__1___boxed(ptr noundef %0, ptr noundef %1) local_unnamed_addr #0 {
  %3 = getelementptr i8, ptr %0, i64 8
  %.val.i = load i64, ptr %3, align 8, !tbaa !15
  %.mask.i = and i64 %.val.i, 9223372036854775807
  %.not.i8 = icmp eq i64 %.mask.i, 0
  br i1 %.not.i8, label %l_Array_contains___at_Lean_Meta_setMVarUserNamesAt___spec__1.exit, label %.lr.ph.i.i

.lr.ph.i.i:                                       ; preds = %2
  %4 = getelementptr inbounds nuw i8, ptr %0, i64 24
  br label %7

5:                                                ; preds = %lean_dec.exit.i.i
  %6 = add nuw nsw i64 %.01528.i.i, 1
  %.not.i17.i = icmp eq i64 %6, %.mask.i
  br i1 %.not.i17.i, label %l_Array_contains___at_Lean_Meta_setMVarUserNamesAt___spec__1.exit, label %7

7:                                                ; preds = %5, %.lr.ph.i.i
  %.01528.i.i = phi i64 [ 0, %.lr.ph.i.i ], [ %6, %5 ]
  %8 = getelementptr inbounds nuw [0 x ptr], ptr %4, i64 0, i64 %.01528.i.i
  %9 = load ptr, ptr %8, align 8, !tbaa !9
  %10 = ptrtoint ptr %9 to i64
  %11 = and i64 %10, 1
  %.not.i20.i.i = icmp eq i64 %11, 0
  br i1 %.not.i20.i.i, label %12, label %lean_array_uget.exit.i.i

12:                                               ; preds = %7
  %.val.i.i.i.i = load i32, ptr %9, align 4, !tbaa !4
  %13 = icmp sgt i32 %.val.i.i.i.i, 0
  br i1 %13, label %14, label %16, !prof !13

14:                                               ; preds = %12
  %15 = add nuw i32 %.val.i.i.i.i, 1
  store i32 %15, ptr %9, align 4, !tbaa !4
  br label %19

16:                                               ; preds = %12
  %.not.i.i.i.i = icmp eq i32 %.val.i.i.i.i, 0
  br i1 %.not.i.i.i.i, label %19, label %17

17:                                               ; preds = %16
  tail call void @lean_inc_ref_cold(ptr noundef nonnull %9) #4
  br label %19

lean_array_uget.exit.i.i:                         ; preds = %7
  %18 = tail call zeroext i8 @lean_expr_eqv(ptr noundef %1, ptr noundef %9) #4
  br label %lean_dec.exit.i.i

19:                                               ; preds = %17, %16, %14
  %20 = tail call zeroext i8 @lean_expr_eqv(ptr noundef %1, ptr noundef nonnull %9) #4
  %21 = load i32, ptr %9, align 4, !tbaa !4
  %22 = icmp sgt i32 %21, 1
  br i1 %22, label %23, label %25, !prof !13

23:                                               ; preds = %19
  %24 = add nsw i32 %21, -1
  store i32 %24, ptr %9, align 4, !tbaa !4
  br label %lean_dec.exit.i.i

25:                                               ; preds = %19
  %.not.i.i.i = icmp eq i32 %21, 0
  br i1 %.not.i.i.i, label %lean_dec.exit.i.i, label %26

26:                                               ; preds = %25
  tail call void @lean_dec_ref_cold(ptr noundef nonnull %9) #4
  br label %lean_dec.exit.i.i

lean_dec.exit.i.i:                                ; preds = %26, %25, %23, %lean_array_uget.exit.i.i
  %27 = phi i8 [ %18, %lean_array_uget.exit.i.i ], [ %20, %23 ], [ %20, %25 ], [ %20, %26 ]
  %28 = icmp eq i8 %27, 0
  br i1 %28, label %5, label %l_Array_contains___at_Lean_Meta_setMVarUserNamesAt___spec__1.exit

l_Array_contains___at_Lean_Meta_setMVarUserNamesAt___spec__1.exit: ; preds = %5, %lean_dec.exit.i.i, %2
  %.0.i = phi i64 [ 1, %2 ], [ 3, %lean_dec.exit.i.i ], [ 1, %5 ]
  %29 = ptrtoint ptr %1 to i64
  %30 = and i64 %29, 1
  %.not = icmp eq i64 %30, 0
  br i1 %.not, label %31, label %lean_dec.exit5

31:                                               ; preds = %l_Array_contains___at_Lean_Meta_setMVarUserNamesAt___spec__1.exit
  %32 = load i32, ptr %1, align 4, !tbaa !4
  %33 = icmp sgt i32 %32, 1
  br i1 %33, label %34, label %36, !prof !13

34:                                               ; preds = %31
  %35 = add nsw i32 %32, -1
  store i32 %35, ptr %1, align 4, !tbaa !4
  br label %lean_dec.exit5

36:                                               ; preds = %31
  %.not.i = icmp eq i32 %32, 0
  br i1 %.not.i, label %lean_dec.exit5, label %37

37:                                               ; preds = %36
  tail call void @lean_dec_ref_cold(ptr noundef nonnull %1) #4
  br label %lean_dec.exit5

lean_dec.exit5:                                   ; preds = %37, %36, %34, %l_Array_contains___at_Lean_Meta_setMVarUserNamesAt___spec__1.exit
  %38 = ptrtoint ptr %0 to i64
  %39 = and i64 %38, 1
  %.not9 = icmp eq i64 %39, 0
  br i1 %.not9, label %40, label %lean_dec.exit

40:                                               ; preds = %lean_dec.exit5
  %41 = load i32, ptr %0, align 4, !tbaa !4
  %42 = icmp sgt i32 %41, 1
  br i1 %42, label %43, label %45, !prof !13

43:                                               ; preds = %40
  %44 = add nsw i32 %41, -1
  store i32 %44, ptr %0, align 4, !tbaa !4
  br label %lean_dec.exit

45:                                               ; preds = %40
  %.not.i6 = icmp eq i32 %41, 0
  br i1 %.not.i6, label %lean_dec.exit, label %46

46:                                               ; preds = %45
  tail call void @lean_dec_ref_cold(ptr noundef nonnull %0) #4
  br label %lean_dec.exit

lean_dec.exit:                                    ; preds = %46, %45, %43, %lean_dec.exit5
  %47 = inttoptr i64 %.0.i to ptr
  ret ptr %47
}